target datalayout = "e-m:e-p270:32:32-p271:32:32-p272:64:64-i64:64-i128:128-f80:128-n8:16:32:64-S128"
target triple = "x86_64-pc-linux-gnu"

%struct.expert_field = type { i32, i32 }

@ei_gsm_a_extraneous_data = internal global %struct.expert_field zeroinitializer, align 4
@hf_gsm_a_b8spare = hidden global i32 0, align 4
@hf_gsm_a_MSC_rev = internal global i32 0, align 4
@hf_gsm_a_ES_IND = internal global i32 0, align 4
@hf_gsm_a_A5_1_algorithm_sup = internal global i32 0, align 4
@hf_gsm_a_RF_power_capability = internal global i32 0, align 4
@hf_gsm_a_ps_sup_cap = internal global i32 0, align 4
@hf_gsm_a_SS_screening_indicator = internal global i32 0, align 4
@hf_gsm_a_SM_capability = internal global i32 0, align 4
@hf_gsm_a_VBS_notification_rec = internal global i32 0, align 4
@hf_gsm_a_VGCS_notification_rec = internal global i32 0, align 4
@hf_gsm_a_FC_frequency_cap = internal global i32 0, align 4
@hf_gsm_a_CM3 = internal global i32 0, align 4
@hf_gsm_a_b7spare = internal global i32 0, align 4
@hf_gsm_a_LCS_VA_cap = internal global i32 0, align 4
@hf_gsm_a_UCS2_treatment = internal global i32 0, align 4
@hf_gsm_a_SoLSA = internal global i32 0, align 4
@hf_gsm_a_CMSP = internal global i32 0, align 4
@hf_gsm_a_A5_3_algorithm_sup = internal global i32 0, align 4
@hf_gsm_a_A5_2_algorithm_sup = internal global i32 0, align 4

; Function Attrs: null_pointer_is_valid sspstrong uwtable
define zeroext i16 @de_ms_cm_2(ptr noundef %0, ptr noundef %1, ptr noundef %2, i32 noundef %3, i32 noundef %4, ptr noundef %5, i32 noundef %6) #1 {
  %8 = alloca i16, align 2
  %9 = alloca ptr, align 8
  %10 = alloca ptr, align 8
  %11 = alloca ptr, align 8
  %12 = alloca i32, align 4
  %13 = alloca i32, align 4
  %14 = alloca ptr, align 8
  %15 = alloca i32, align 4
  %16 = alloca i32, align 4
  %17 = alloca i32, align 4
  store ptr %0, ptr %9, align 8
  store ptr %1, ptr %10, align 8
  store ptr %2, ptr %11, align 8
  store i32 %3, ptr %12, align 4
  store i32 %4, ptr %13, align 4
  store ptr %5, ptr %14, align 8
  store i32 %6, ptr %15, align 4
  call void @llvm.lifetime.start.p0(i64 4, ptr %16) #9
  %18 = load i32, ptr %12, align 4
  store i32 %18, ptr %16, align 4
  %19 = load ptr, ptr %10, align 8
  %20 = load i32, ptr @hf_gsm_a_b8spare, align 4
  %21 = load ptr, ptr %9, align 8
  %22 = load i32, ptr %16, align 4
  %23 = call ptr @proto_tree_add_item(ptr noundef %19, i32 noundef %20, ptr noundef %21, i32 noundef %22, i32 noundef 1, i32 noundef 0)
  %24 = load ptr, ptr %10, align 8
  %25 = load i32, ptr @hf_gsm_a_MSC_rev, align 4
  %26 = load ptr, ptr %9, align 8
  %27 = load i32, ptr %16, align 4
  %28 = call ptr @proto_tree_add_item(ptr noundef %24, i32 noundef %25, ptr noundef %26, i32 noundef %27, i32 noundef 1, i32 noundef 0)
  %29 = load ptr, ptr %10, align 8
  %30 = load i32, ptr @hf_gsm_a_ES_IND, align 4
  %31 = load ptr, ptr %9, align 8
  %32 = load i32, ptr %16, align 4
  %33 = call ptr @proto_tree_add_item(ptr noundef %29, i32 noundef %30, ptr noundef %31, i32 noundef %32, i32 noundef 1, i32 noundef 0)
  %34 = load ptr, ptr %10, align 8
  %35 = load i32, ptr @hf_gsm_a_A5_1_algorithm_sup, align 4
  %36 = load ptr, ptr %9, align 8
  %37 = load i32, ptr %16, align 4
  %38 = call ptr @proto_tree_add_item(ptr noundef %34, i32 noundef %35, ptr noundef %36, i32 noundef %37, i32 noundef 1, i32 noundef 0)
  %39 = load ptr, ptr %10, align 8
  %40 = load i32, ptr @hf_gsm_a_RF_power_capability, align 4
  %41 = load ptr, ptr %9, align 8
  %42 = load i32, ptr %16, align 4
  %43 = call ptr @proto_tree_add_item(ptr noundef %39, i32 noundef %40, ptr noundef %41, i32 noundef %42, i32 noundef 1, i32 noundef 0)
  %44 = load i32, ptr %16, align 4
  %45 = add i32 %44, 1
  store i32 %45, ptr %16, align 4
  %46 = load i32, ptr %13, align 4
  %47 = load i32, ptr %16, align 4
  %48 = load i32, ptr %12, align 4
  %49 = sub i32 %47, %48
  %50 = icmp ule i32 %46, %49
  br i1 %50, label %51, label %54

51:                                               ; preds = %7
  %52 = load i32, ptr %13, align 4
  %53 = trunc i32 %52 to i16
  store i16 %53, ptr %8, align 2
  store i32 1, ptr %17, align 4
  br label %171

54:                                               ; preds = %7
  %55 = load ptr, ptr %10, align 8
  %56 = load i32, ptr @hf_gsm_a_b8spare, align 4
  %57 = load ptr, ptr %9, align 8
  %58 = load i32, ptr %16, align 4
  %59 = call ptr @proto_tree_add_item(ptr noundef %55, i32 noundef %56, ptr noundef %57, i32 noundef %58, i32 noundef 1, i32 noundef 0)
  %60 = load ptr, ptr %10, align 8
  %61 = load i32, ptr @hf_gsm_a_ps_sup_cap, align 4
  %62 = load ptr, ptr %9, align 8
  %63 = load i32, ptr %16, align 4
  %64 = call ptr @proto_tree_add_item(ptr noundef %60, i32 noundef %61, ptr noundef %62, i32 noundef %63, i32 noundef 1, i32 noundef 0)
  %65 = load ptr, ptr %10, align 8
  %66 = load i32, ptr @hf_gsm_a_SS_screening_indicator, align 4
  %67 = load ptr, ptr %9, align 8
  %68 = load i32, ptr %16, align 4
  %69 = call ptr @proto_tree_add_item(ptr noundef %65, i32 noundef %66, ptr noundef %67, i32 noundef %68, i32 noundef 1, i32 noundef 0)
  %70 = load ptr, ptr %10, align 8
  %71 = load i32, ptr @hf_gsm_a_SM_capability, align 4
  %72 = load ptr, ptr %9, align 8
  %73 = load i32, ptr %16, align 4
  %74 = call ptr @proto_tree_add_item(ptr noundef %70, i32 noundef %71, ptr noundef %72, i32 noundef %73, i32 noundef 1, i32 noundef 0)
  %75 = load ptr, ptr %10, align 8
  %76 = load i32, ptr @hf_gsm_a_VBS_notification_rec, align 4
  %77 = load ptr, ptr %9, align 8
  %78 = load i32, ptr %16, align 4
  %79 = call ptr @proto_tree_add_item(ptr noundef %75, i32 noundef %76, ptr noundef %77, i32 noundef %78, i32 noundef 1, i32 noundef 0)
  %80 = load ptr, ptr %10, align 8
  %81 = load i32, ptr @hf_gsm_a_VGCS_notification_rec, align 4
  %82 = load ptr, ptr %9, align 8
  %83 = load i32, ptr %16, align 4
  %84 = call ptr @proto_tree_add_item(ptr noundef %80, i32 noundef %81, ptr noundef %82, i32 noundef %83, i32 noundef 1, i32 noundef 0)
  %85 = load ptr, ptr %10, align 8
  %86 = load i32, ptr @hf_gsm_a_FC_frequency_cap, align 4
  %87 = load ptr, ptr %9, align 8
  %88 = load i32, ptr %16, align 4
  %89 = call ptr @proto_tree_add_item(ptr noundef %85, i32 noundef %86, ptr noundef %87, i32 noundef %88, i32 noundef 1, i32 noundef 0)
  %90 = load i32, ptr %16, align 4
  %91 = add i32 %90, 1
  store i32 %91, ptr %16, align 4
  %92 = load i32, ptr %13, align 4
  %93 = load i32, ptr %16, align 4
  %94 = load i32, ptr %12, align 4
  %95 = sub i32 %93, %94
  %96 = icmp ule i32 %92, %95
  br i1 %96, label %97, label %100

97:                                               ; preds = %54
  %98 = load i32, ptr %13, align 4
  %99 = trunc i32 %98 to i16
  store i16 %99, ptr %8, align 2
  store i32 1, ptr %17, align 4
  br label %171

100:                                              ; preds = %54
  %101 = load ptr, ptr %10, align 8
  %102 = load i32, ptr @hf_gsm_a_CM3, align 4
  %103 = load ptr, ptr %9, align 8
  %104 = load i32, ptr %16, align 4
  %105 = call ptr @proto_tree_add_item(ptr noundef %101, i32 noundef %102, ptr noundef %103, i32 noundef %104, i32 noundef 1, i32 noundef 0)
  %106 = load ptr, ptr %10, align 8
  %107 = load i32, ptr @hf_gsm_a_b7spare, align 4
  %108 = load ptr, ptr %9, align 8
  %109 = load i32, ptr %16, align 4
  %110 = call ptr @proto_tree_add_item(ptr noundef %106, i32 noundef %107, ptr noundef %108, i32 noundef %109, i32 noundef 1, i32 noundef 0)
  %111 = load ptr, ptr %10, align 8
  %112 = load i32, ptr @hf_gsm_a_LCS_VA_cap, align 4
  %113 = load ptr, ptr %9, align 8
  %114 = load i32, ptr %16, align 4
  %115 = call ptr @proto_tree_add_item(ptr noundef %111, i32 noundef %112, ptr noundef %113, i32 noundef %114, i32 noundef 1, i32 noundef 0)
  %116 = load ptr, ptr %10, align 8
  %117 = load i32, ptr @hf_gsm_a_UCS2_treatment, align 4
  %118 = load ptr, ptr %9, align 8
  %119 = load i32, ptr %16, align 4
  %120 = call ptr @proto_tree_add_item(ptr noundef %116, i32 noundef %117, ptr noundef %118, i32 noundef %119, i32 noundef 1, i32 noundef 0)
  %121 = load ptr, ptr %10, align 8
  %122 = load i32, ptr @hf_gsm_a_SoLSA, align 4
  %123 = load ptr, ptr %9, align 8
  %124 = load i32, ptr %16, align 4
  %125 = call ptr @proto_tree_add_item(ptr noundef %121, i32 noundef %122, ptr noundef %123, i32 noundef %124, i32 noundef 1, i32 noundef 0)
  %126 = load ptr, ptr %10, align 8
  %127 = load i32, ptr @hf_gsm_a_CMSP, align 4
  %128 = load ptr, ptr %9, align 8
  %129 = load i32, ptr %16, align 4
  %130 = call ptr @proto_tree_add_item(ptr noundef %126, i32 noundef %127, ptr noundef %128, i32 noundef %129, i32 noundef 1, i32 noundef 0)
  %131 = load ptr, ptr %10, align 8
  %132 = load i32, ptr @hf_gsm_a_A5_3_algorithm_sup, align 4
  %133 = load ptr, ptr %9, align 8
  %134 = load i32, ptr %16, align 4
  %135 = call ptr @proto_tree_add_item(ptr noundef %131, i32 noundef %132, ptr noundef %133, i32 noundef %134, i32 noundef 1, i32 noundef 0)
  %136 = load ptr, ptr %10, align 8
  %137 = load i32, ptr @hf_gsm_a_A5_2_algorithm_sup, align 4
  %138 = load ptr, ptr %9, align 8
  %139 = load i32, ptr %16, align 4
  %140 = call ptr @proto_tree_add_item(ptr noundef %136, i32 noundef %137, ptr noundef %138, i32 noundef %139, i32 noundef 1, i32 noundef 0)
  %141 = load i32, ptr %16, align 4
  %142 = add i32 %141, 1
  store i32 %142, ptr %16, align 4
  %143 = load i32, ptr %13, align 4
  %144 = load i32, ptr %16, align 4
  %145 = load i32, ptr %12, align 4
  %146 = sub i32 %144, %145
  %147 = icmp ugt i32 %143, %146
  br i1 %147, label %148, label %166

148:                                              ; preds = %100
  %149 = load ptr, ptr %10, align 8
  %150 = load ptr, ptr %11, align 8
  %151 = load ptr, ptr %9, align 8
  %152 = load i32, ptr %16, align 4
  %153 = load i32, ptr %13, align 4
  %154 = load i32, ptr %16, align 4
  %155 = load i32, ptr %12, align 4
  %156 = sub i32 %154, %155
  %157 = sub i32 %153, %156
  %158 = call ptr @proto_tree_add_expert(ptr noundef %149, ptr noundef %150, ptr noundef @ei_gsm_a_extraneous_data, ptr noundef %151, i32 noundef %152, i32 noundef %157)
  %159 = load i32, ptr %13, align 4
  %160 = load i32, ptr %16, align 4
  %161 = load i32, ptr %12, align 4
  %162 = sub i32 %160, %161
  %163 = sub i32 %159, %162
  %164 = load i32, ptr %16, align 4
  %165 = add i32 %164, %163
  store i32 %165, ptr %16, align 4
  br label %166

166:                                              ; preds = %148, %100
  %167 = load i32, ptr %16, align 4
  %168 = load i32, ptr %12, align 4
  %169 = sub i32 %167, %168
  %170 = trunc i32 %169 to i16
  store i16 %170, ptr %8, align 2
  store i32 1, ptr %17, align 4
  br label %171

171:                                              ; preds = %166, %97, %51
  call void @llvm.lifetime.end.p0(i64 4, ptr %16) #9
  %172 = load i16, ptr %8, align 2
  ret i16 %172
}