; Function Attrs: null_pointer_is_valid sspstrong uwtable
define zeroext i16 @de_ms_cm_2(ptr noundef %0, ptr noundef %1, ptr noundef %2, i32 noundef %3, i32 noundef %4, ptr readnone captures(none) %5, i32 %6) #1 {
  %8 = load i32, ptr @hf_gsm_a_b8spare, align 4
  %9 = tail call ptr @proto_tree_add_item(ptr noundef %1, i32 noundef %8, ptr noundef %0, i32 noundef %3, i32 noundef 1, i32 noundef 0)
  %10 = load i32, ptr @hf_gsm_a_MSC_rev, align 4
  %11 = tail call ptr @proto_tree_add_item(ptr noundef %1, i32 noundef %10, ptr noundef %0, i32 noundef %3, i32 noundef 1, i32 noundef 0)
  %12 = load i32, ptr @hf_gsm_a_ES_IND, align 4
  %13 = tail call ptr @proto_tree_add_item(ptr noundef %1, i32 noundef %12, ptr noundef %0, i32 noundef %3, i32 noundef 1, i32 noundef 0)
  %14 = load i32, ptr @hf_gsm_a_A5_1_algorithm_sup, align 4
  %15 = tail call ptr @proto_tree_add_item(ptr noundef %1, i32 noundef %14, ptr noundef %0, i32 noundef %3, i32 noundef 1, i32 noundef 0)
  %16 = load i32, ptr @hf_gsm_a_RF_power_capability, align 4
  %17 = tail call ptr @proto_tree_add_item(ptr noundef %1, i32 noundef %16, ptr noundef %0, i32 noundef %3, i32 noundef 1, i32 noundef 0)
  %18 = icmp ult i32 %4, 2
  br i1 %18, label %19, label %21

19:                                               ; preds = %7
  %20 = trunc nuw nsw i32 %4 to i16
  br label %65

21:                                               ; preds = %7
  %22 = add i32 %3, 1
  %23 = load i32, ptr @hf_gsm_a_b8spare, align 4
  %24 = tail call ptr @proto_tree_add_item(ptr noundef %1, i32 noundef %23, ptr noundef %0, i32 noundef %22, i32 noundef 1, i32 noundef 0)
  %25 = load i32, ptr @hf_gsm_a_ps_sup_cap, align 4
  %26 = tail call ptr @proto_tree_add_item(ptr noundef %1, i32 noundef %25, ptr noundef %0, i32 noundef %22, i32 noundef 1, i32 noundef 0)
  %27 = load i32, ptr @hf_gsm_a_SS_screening_indicator, align 4
  %28 = tail call ptr @proto_tree_add_item(ptr noundef %1, i32 noundef %27, ptr noundef %0, i32 noundef %22, i32 noundef 1, i32 noundef 0)
  %29 = load i32, ptr @hf_gsm_a_SM_capability, align 4
  %30 = tail call ptr @proto_tree_add_item(ptr noundef %1, i32 noundef %29, ptr noundef %0, i32 noundef %22, i32 noundef 1, i32 noundef 0)
  %31 = load i32, ptr @hf_gsm_a_VBS_notification_rec, align 4
  %32 = tail call ptr @proto_tree_add_item(ptr noundef %1, i32 noundef %31, ptr noundef %0, i32 noundef %22, i32 noundef 1, i32 noundef 0)
  %33 = load i32, ptr @hf_gsm_a_VGCS_notification_rec, align 4
  %34 = tail call ptr @proto_tree_add_item(ptr noundef %1, i32 noundef %33, ptr noundef %0, i32 noundef %22, i32 noundef 1, i32 noundef 0)
  %35 = load i32, ptr @hf_gsm_a_FC_frequency_cap, align 4
  %36 = tail call ptr @proto_tree_add_item(ptr noundef %1, i32 noundef %35, ptr noundef %0, i32 noundef %22, i32 noundef 1, i32 noundef 0)
  %37 = icmp eq i32 %4, 2
  br i1 %37, label %65, label %38

38:                                               ; preds = %21
  %39 = add i32 %3, 2
  %40 = load i32, ptr @hf_gsm_a_CM3, align 4
  %41 = tail call ptr @proto_tree_add_item(ptr noundef %1, i32 noundef %40, ptr noundef %0, i32 noundef %39, i32 noundef 1, i32 noundef 0)
  %42 = load i32, ptr @hf_gsm_a_b7spare, align 4
  %43 = tail call ptr @proto_tree_add_item(ptr noundef %1, i32 noundef %42, ptr noundef %0, i32 noundef %39, i32 noundef 1, i32 noundef 0)
  %44 = load i32, ptr @hf_gsm_a_LCS_VA_cap, align 4
  %45 = tail call ptr @proto_tree_add_item(ptr noundef %1, i32 noundef %44, ptr noundef %0, i32 noundef %39, i32 noundef 1, i32 noundef 0)
  %46 = load i32, ptr @hf_gsm_a_UCS2_treatment, align 4
  %47 = tail call ptr @proto_tree_add_item(ptr noundef %1, i32 noundef %46, ptr noundef %0, i32 noundef %39, i32 noundef 1, i32 noundef 0)
  %48 = load i32, ptr @hf_gsm_a_SoLSA, align 4
  %49 = tail call ptr @proto_tree_add_item(ptr noundef %1, i32 noundef %48, ptr noundef %0, i32 noundef %39, i32 noundef 1, i32 noundef 0)
  %50 = load i32, ptr @hf_gsm_a_CMSP, align 4
  %51 = tail call ptr @proto_tree_add_item(ptr noundef %1, i32 noundef %50, ptr noundef %0, i32 noundef %39, i32 noundef 1, i32 noundef 0)
  %52 = load i32, ptr @hf_gsm_a_A5_3_algorithm_sup, align 4
  %53 = tail call ptr @proto_tree_add_item(ptr noundef %1, i32 noundef %52, ptr noundef %0, i32 noundef %39, i32 noundef 1, i32 noundef 0)
  %54 = load i32, ptr @hf_gsm_a_A5_2_algorithm_sup, align 4
  %55 = tail call ptr @proto_tree_add_item(ptr noundef %1, i32 noundef %54, ptr noundef %0, i32 noundef %39, i32 noundef 1, i32 noundef 0)
  %56 = add i32 %3, 3
  %57 = icmp ugt i32 %4, 3
  br i1 %57, label %58, label %62

58:                                               ; preds = %38
  %59 = add i32 %4, -3
  %60 = tail call ptr @proto_tree_add_expert(ptr noundef %1, ptr noundef %2, ptr noundef nonnull @ei_gsm_a_extraneous_data, ptr noundef %0, i32 noundef %56, i32 noundef %59)
  %61 = add i32 %4, %3
  br label %62

62:                                               ; preds = %58, %38
  %.0 = phi i32 [ %61, %58 ], [ %56, %38 ]
  %63 = sub i32 %.0, %3
  %64 = trunc i32 %63 to i16
  br label %65

65:                                               ; preds = %21, %62, %19
  %.088 = phi i16 [ %20, %19 ], [ %64, %62 ], [ 2, %21 ]
  ret i16 %.088
}